target datalayout = "e-m:e-p270:32:32-p271:32:32-p272:64:64-i64:64-i128:128-f80:128-n8:16:32:64-S128"
target triple = "x86_64-pc-linux-gnu"

%"class.icu_77::UCharCharacterIterator" = type { %"class.icu_77::CharacterIterator", ptr }
%"class.icu_77::CharacterIterator" = type { %"class.icu_77::ForwardCharacterIterator", i32, i32, i32, i32 }
%"class.icu_77::ForwardCharacterIterator" = type { %"class.icu_77::UObject" }
%"class.icu_77::UObject" = type { ptr }

; Function Attrs: mustprogress nounwind uwtable
define noundef i32 @_ZNK6icu_7722UCharCharacterIterator9current32Ev(ptr noundef nonnull align 8 dereferenceable(32) %0) unnamed_addr #0 align 2 {
  %2 = alloca i32, align 4
  %3 = alloca ptr, align 8
  %4 = alloca i32, align 4
  %5 = alloca i16, align 2
  store ptr %0, ptr %3, align 8, !tbaa !3
  %6 = load ptr, ptr %3, align 8
  %7 = getelementptr inbounds nuw %"class.icu_77::CharacterIterator", ptr %6, i32 0, i32 2
  %8 = load i32, ptr %7, align 4, !tbaa !23
  %9 = getelementptr inbounds nuw %"class.icu_77::CharacterIterator", ptr %6, i32 0, i32 3
  %10 = load i32, ptr %9, align 8, !tbaa !24
  %11 = icmp sge i32 %8, %10
  br i1 %11, label %12, label %93

12:                                               ; preds = %1
  %13 = getelementptr inbounds nuw %"class.icu_77::CharacterIterator", ptr %6, i32 0, i32 2
  %14 = load i32, ptr %13, align 4, !tbaa !23
  %15 = getelementptr inbounds nuw %"class.icu_77::CharacterIterator", ptr %6, i32 0, i32 4
  %16 = load i32, ptr %15, align 4, !tbaa !25
  %17 = icmp slt i32 %14, %16
  br i1 %17, label %18, label %93

18:                                               ; preds = %12
  call void @llvm.lifetime.start.p0(i64 4, ptr %4) #7
  br label %19

19:                                               ; preds = %18
  %20 = getelementptr inbounds nuw %"class.icu_77::UCharCharacterIterator", ptr %6, i32 0, i32 1
  %21 = load ptr, ptr %20, align 8, !tbaa !10
  %22 = getelementptr inbounds nuw %"class.icu_77::CharacterIterator", ptr %6, i32 0, i32 2
  %23 = load i32, ptr %22, align 4, !tbaa !23
  %24 = sext i32 %23 to i64
  %25 = getelementptr inbounds i16, ptr %21, i64 %24
  %26 = load i16, ptr %25, align 2, !tbaa !28
  %27 = zext i16 %26 to i32
  store i32 %27, ptr %4, align 4, !tbaa !19
  %28 = load i32, ptr %4, align 4, !tbaa !19
  %29 = and i32 %28, -2048
  %30 = icmp eq i32 %29, 55296
  br i1 %30, label %31, label %89

31:                                               ; preds = %19
  call void @llvm.lifetime.start.p0(i64 2, ptr %5) #7
  %32 = load i32, ptr %4, align 4, !tbaa !19
  %33 = and i32 %32, 1024
  %34 = icmp eq i32 %33, 0
  br i1 %34, label %35, label %62

35:                                               ; preds = %31
  %36 = getelementptr inbounds nuw %"class.icu_77::CharacterIterator", ptr %6, i32 0, i32 2
  %37 = load i32, ptr %36, align 4, !tbaa !23
  %38 = add nsw i32 %37, 1
  %39 = getelementptr inbounds nuw %"class.icu_77::CharacterIterator", ptr %6, i32 0, i32 4
  %40 = load i32, ptr %39, align 4, !tbaa !25
  %41 = icmp ne i32 %38, %40
  br i1 %41, label %42, label %61

42:                                               ; preds = %35
  %43 = getelementptr inbounds nuw %"class.icu_77::UCharCharacterIterator", ptr %6, i32 0, i32 1
  %44 = load ptr, ptr %43, align 8, !tbaa !10
  %45 = getelementptr inbounds nuw %"class.icu_77::CharacterIterator", ptr %6, i32 0, i32 2
  %46 = load i32, ptr %45, align 4, !tbaa !23
  %47 = add nsw i32 %46, 1
  %48 = sext i32 %47 to i64
  %49 = getelementptr inbounds i16, ptr %44, i64 %48
  %50 = load i16, ptr %49, align 2, !tbaa !28
  store i16 %50, ptr %5, align 2, !tbaa !30
  %51 = zext i16 %50 to i32
  %52 = and i32 %51, -1024
  %53 = icmp eq i32 %52, 56320
  br i1 %53, label %54, label %61

54:                                               ; preds = %42
  %55 = load i32, ptr %4, align 4, !tbaa !19
  %56 = shl i32 %55, 10
  %57 = load i16, ptr %5, align 2, !tbaa !30
  %58 = zext i16 %57 to i32
  %59 = add nsw i32 %56, %58
  %60 = sub nsw i32 %59, 56613888
  store i32 %60, ptr %4, align 4, !tbaa !19
  br label %61

61:                                               ; preds = %54, %42, %35
  br label %88

62:                                               ; preds = %31
  %63 = getelementptr inbounds nuw %"class.icu_77::CharacterIterator", ptr %6, i32 0, i32 2
  %64 = load i32, ptr %63, align 4, !tbaa !23
  %65 = getelementptr inbounds nuw %"class.icu_77::CharacterIterator", ptr %6, i32 0, i32 3
  %66 = load i32, ptr %65, align 8, !tbaa !24
  %67 = icmp sgt i32 %64, %66
  br i1 %67, label %68, label %87

68:                                               ; preds = %62
  %69 = getelementptr inbounds nuw %"class.icu_77::UCharCharacterIterator", ptr %6, i32 0, i32 1
  %70 = load ptr, ptr %69, align 8, !tbaa !10
  %71 = getelementptr inbounds nuw %"class.icu_77::CharacterIterator", ptr %6, i32 0, i32 2
  %72 = load i32, ptr %71, align 4, !tbaa !23
  %73 = sub nsw i32 %72, 1
  %74 = sext i32 %73 to i64
  %75 = getelementptr inbounds i16, ptr %70, i64 %74
  %76 = load i16, ptr %75, align 2, !tbaa !28
  store i16 %76, ptr %5, align 2, !tbaa !30
  %77 = zext i16 %76 to i32
  %78 = and i32 %77, -1024
  %79 = icmp eq i32 %78, 55296
  br i1 %79, label %80, label %87

80:                                               ; preds = %68
  %81 = load i16, ptr %5, align 2, !tbaa !30
  %82 = zext i16 %81 to i32
  %83 = shl i32 %82, 10
  %84 = load i32, ptr %4, align 4, !tbaa !19
  %85 = add nsw i32 %83, %84
  %86 = sub nsw i32 %85, 56613888
  store i32 %86, ptr %4, align 4, !tbaa !19
  br label %87

87:                                               ; preds = %80, %68, %62
  br label %88

88:                                               ; preds = %87, %61
  call void @llvm.lifetime.end.p0(i64 2, ptr %5) #7
  br label %89

89:                                               ; preds = %88, %19
  br label %90

90:                                               ; preds = %89
  br label %91

91:                                               ; preds = %90
  %92 = load i32, ptr %4, align 4, !tbaa !19
  store i32 %92, ptr %2, align 4
  call void @llvm.lifetime.end.p0(i64 4, ptr %4) #7
  br label %94

93:                                               ; preds = %12, %1
  store i32 65535, ptr %2, align 4
  br label %94

94:                                               ; preds = %93, %91
  %95 = load i32, ptr %2, align 4
  ret i32 %95
}