; Function Attrs: mustprogress nofree norecurse nosync nounwind willreturn memory(read, inaccessiblemem: none) uwtable
define noundef range(i32 0, 10559488) i32 @_ZNK6icu_7722UCharCharacterIterator9current32Ev(ptr noundef nonnull readonly align 8 captures(none) dereferenceable(32) %0) unnamed_addr #8 align 2 {
  %2 = getelementptr inbounds nuw i8, ptr %0, i64 12
  %3 = load i32, ptr %2, align 4, !tbaa !22
  %4 = getelementptr inbounds nuw i8, ptr %0, i64 16
  %5 = load i32, ptr %4, align 8, !tbaa !23
  %.not = icmp slt i32 %3, %5
  br i1 %.not, label %47, label %6

6:                                                ; preds = %1
  %7 = getelementptr inbounds nuw i8, ptr %0, i64 20
  %8 = load i32, ptr %7, align 4, !tbaa !24
  %9 = icmp slt i32 %3, %8
  br i1 %9, label %10, label %47

10:                                               ; preds = %6
  %11 = getelementptr inbounds nuw i8, ptr %0, i64 24
  %12 = load ptr, ptr %11, align 8, !tbaa !6
  %13 = sext i32 %3 to i64
  %14 = getelementptr inbounds i16, ptr %12, i64 %13
  %15 = load i16, ptr %14, align 2, !tbaa !25
  %16 = zext i16 %15 to i32
  %17 = and i32 %16, 63488
  %18 = icmp eq i32 %17, 55296
  br i1 %18, label %19, label %47

19:                                               ; preds = %10
  %20 = and i32 %16, 1024
  %21 = icmp eq i32 %20, 0
  br i1 %21, label %22, label %35

22:                                               ; preds = %19
  %23 = add nsw i32 %3, 1
  %.not13 = icmp eq i32 %23, %8
  br i1 %.not13, label %47, label %24

24:                                               ; preds = %22
  %25 = sext i32 %23 to i64
  %26 = getelementptr inbounds i16, ptr %12, i64 %25
  %27 = load i16, ptr %26, align 2, !tbaa !25
  %28 = zext i16 %27 to i32
  %29 = and i32 %28, 64512
  %30 = icmp eq i32 %29, 56320
  br i1 %30, label %31, label %47

31:                                               ; preds = %24
  %32 = shl nuw nsw i32 %16, 10
  %33 = add nsw i32 %32, -56613888
  %34 = add nuw nsw i32 %33, %28
  br label %47

35:                                               ; preds = %19
  %36 = icmp sgt i32 %3, %5
  br i1 %36, label %37, label %47

37:                                               ; preds = %35
  %38 = getelementptr i8, ptr %14, i64 -2
  %39 = load i16, ptr %38, align 2, !tbaa !25
  %40 = zext i16 %39 to i32
  %41 = and i32 %40, 64512
  %42 = icmp eq i32 %41, 55296
  br i1 %42, label %43, label %47

43:                                               ; preds = %37
  %44 = shl nuw nsw i32 %40, 10
  %45 = add nuw nsw i32 %16, -56613888
  %46 = add nsw i32 %45, %44
  br label %47

47:                                               ; preds = %1, %6, %10, %35, %37, %43, %22, %24, %31
  %.08 = phi i32 [ %16, %10 ], [ %34, %31 ], [ %16, %24 ], [ %16, %22 ], [ %46, %43 ], [ %16, %37 ], [ %16, %35 ], [ 65535, %6 ], [ 65535, %1 ]
  ret i32 %.08
}